target datalayout = "e-m:e-p270:32:32-p271:32:32-p272:64:64-i64:64-i128:128-f80:128-n8:16:32:64-S128"
target triple = "x86_64-pc-linux-gnu"

%struct.Clu_Man_t_ = type { i32, i32, i32, i32, i32, i32, i32, i32, i32, i32, i32, i32, i32, i32, i32, ptr, ptr, ptr, ptr, i32, i32, i32, ptr, ptr, ptr, i32, i32, i32, i32, ptr, ptr, ptr, i32, i32 }
%struct.Vec_Int_t_ = type { i32, i32, ptr }
%struct.Vec_Ptr_t_ = type { i32, i32, ptr }

; Function Attrs: inlinehint nounwind uwtable
define internal void @Vec_IntFree(ptr noundef %0) #2 {
  %2 = alloca ptr, align 8
  store ptr %0, ptr %2, align 8, !tbaa !90
  %3 = load ptr, ptr %2, align 8, !tbaa !90
  %4 = getelementptr inbounds nuw %struct.Vec_Int_t_, ptr %3, i32 0, i32 2
  %5 = load ptr, ptr %4, align 8, !tbaa !93
  %6 = icmp ne ptr %5, null
  br i1 %6, label %7, label %13

7:                                                ; preds = %1
  %8 = load ptr, ptr %2, align 8, !tbaa !90
  %9 = getelementptr inbounds nuw %struct.Vec_Int_t_, ptr %8, i32 0, i32 2
  %10 = load ptr, ptr %9, align 8, !tbaa !93
  call void @free(ptr noundef %10) #11
  %11 = load ptr, ptr %2, align 8, !tbaa !90
  %12 = getelementptr inbounds nuw %struct.Vec_Int_t_, ptr %11, i32 0, i32 2
  store ptr null, ptr %12, align 8, !tbaa !93
  br label %14

13:                                               ; preds = %1
  br label %14

14:                                               ; preds = %13, %7
  %15 = load ptr, ptr %2, align 8, !tbaa !90
  %16 = icmp ne ptr %15, null
  br i1 %16, label %17, label %19

17:                                               ; preds = %14
  %18 = load ptr, ptr %2, align 8, !tbaa !90
  call void @free(ptr noundef %18) #11
  store ptr null, ptr %2, align 8, !tbaa !90
  br label %20

19:                                               ; preds = %14
  br label %20

20:                                               ; preds = %19, %17
  ret void
}

; Function Attrs: inlinehint nounwind uwtable
define internal void @Vec_PtrFree(ptr noundef %0) #2 {
  %2 = alloca ptr, align 8
  store ptr %0, ptr %2, align 8, !tbaa !109
  %3 = load ptr, ptr %2, align 8, !tbaa !109
  %4 = getelementptr inbounds nuw %struct.Vec_Ptr_t_, ptr %3, i32 0, i32 2
  %5 = load ptr, ptr %4, align 8, !tbaa !112
  %6 = icmp ne ptr %5, null
  br i1 %6, label %7, label %13

7:                                                ; preds = %1
  %8 = load ptr, ptr %2, align 8, !tbaa !109
  %9 = getelementptr inbounds nuw %struct.Vec_Ptr_t_, ptr %8, i32 0, i32 2
  %10 = load ptr, ptr %9, align 8, !tbaa !112
  call void @free(ptr noundef %10) #11
  %11 = load ptr, ptr %2, align 8, !tbaa !109
  %12 = getelementptr inbounds nuw %struct.Vec_Ptr_t_, ptr %11, i32 0, i32 2
  store ptr null, ptr %12, align 8, !tbaa !112
  br label %14

13:                                               ; preds = %1
  br label %14

14:                                               ; preds = %13, %7
  %15 = load ptr, ptr %2, align 8, !tbaa !109
  %16 = icmp ne ptr %15, null
  br i1 %16, label %17, label %19

17:                                               ; preds = %14
  %18 = load ptr, ptr %2, align 8, !tbaa !109
  call void @free(ptr noundef %18) #11
  store ptr null, ptr %2, align 8, !tbaa !109
  br label %20

19:                                               ; preds = %14
  br label %20

20:                                               ; preds = %19, %17
  ret void
}

; Function Attrs: nounwind uwtable
define void @Fra_ClausFree(ptr noundef %0) #0 {
  %2 = alloca ptr, align 8
  store ptr %0, ptr %2, align 8, !tbaa !3
  %3 = load ptr, ptr %2, align 8, !tbaa !3
  %4 = getelementptr inbounds nuw %struct.Clu_Man_t_, ptr %3, i32 0, i32 31
  %5 = load ptr, ptr %4, align 8, !tbaa !168
  %6 = icmp ne ptr %5, null
  br i1 %6, label %7, label %11

7:                                                ; preds = %1
  %8 = load ptr, ptr %2, align 8, !tbaa !3
  %9 = getelementptr inbounds nuw %struct.Clu_Man_t_, ptr %8, i32 0, i32 31
  %10 = load ptr, ptr %9, align 8, !tbaa !168
  call void @Vec_PtrFree(ptr noundef %10)
  br label %11

11:                                               ; preds = %7, %1
  %12 = load ptr, ptr %2, align 8, !tbaa !3
  %13 = getelementptr inbounds nuw %struct.Clu_Man_t_, ptr %12, i32 0, i32 22
  %14 = load ptr, ptr %13, align 8, !tbaa !94
  %15 = icmp ne ptr %14, null
  br i1 %15, label %16, label %20

16:                                               ; preds = %11
  %17 = load ptr, ptr %2, align 8, !tbaa !3
  %18 = getelementptr inbounds nuw %struct.Clu_Man_t_, ptr %17, i32 0, i32 22
  %19 = load ptr, ptr %18, align 8, !tbaa !94
  call void @Vec_IntFree(ptr noundef %19)
  br label %20

20:                                               ; preds = %16, %11
  %21 = load ptr, ptr %2, align 8, !tbaa !3
  %22 = getelementptr inbounds nuw %struct.Clu_Man_t_, ptr %21, i32 0, i32 23
  %23 = load ptr, ptr %22, align 8, !tbaa !96
  %24 = icmp ne ptr %23, null
  br i1 %24, label %25, label %29

25:                                               ; preds = %20
  %26 = load ptr, ptr %2, align 8, !tbaa !3
  %27 = getelementptr inbounds nuw %struct.Clu_Man_t_, ptr %26, i32 0, i32 23
  %28 = load ptr, ptr %27, align 8, !tbaa !96
  call void @Vec_IntFree(ptr noundef %28)
  br label %29

29:                                               ; preds = %25, %20
  %30 = load ptr, ptr %2, align 8, !tbaa !3
  %31 = getelementptr inbounds nuw %struct.Clu_Man_t_, ptr %30, i32 0, i32 29
  %32 = load ptr, ptr %31, align 8, !tbaa !142
  %33 = icmp ne ptr %32, null
  br i1 %33, label %34, label %38

34:                                               ; preds = %29
  %35 = load ptr, ptr %2, align 8, !tbaa !3
  %36 = getelementptr inbounds nuw %struct.Clu_Man_t_, ptr %35, i32 0, i32 29
  %37 = load ptr, ptr %36, align 8, !tbaa !142
  call void @Vec_IntFree(ptr noundef %37)
  br label %38

38:                                               ; preds = %34, %29
  %39 = load ptr, ptr %2, align 8, !tbaa !3
  %40 = getelementptr inbounds nuw %struct.Clu_Man_t_, ptr %39, i32 0, i32 30
  %41 = load ptr, ptr %40, align 8, !tbaa !141
  %42 = icmp ne ptr %41, null
  br i1 %42, label %43, label %47

43:                                               ; preds = %38
  %44 = load ptr, ptr %2, align 8, !tbaa !3
  %45 = getelementptr inbounds nuw %struct.Clu_Man_t_, ptr %44, i32 0, i32 30
  %46 = load ptr, ptr %45, align 8, !tbaa !141
  call void @Vec_IntFree(ptr noundef %46)
  br label %47

47:                                               ; preds = %43, %38
  %48 = load ptr, ptr %2, align 8, !tbaa !3
  %49 = getelementptr inbounds nuw %struct.Clu_Man_t_, ptr %48, i32 0, i32 24
  %50 = load ptr, ptr %49, align 8, !tbaa !83
  %51 = icmp ne ptr %50, null
  br i1 %51, label %52, label %56

52:                                               ; preds = %47
  %53 = load ptr, ptr %2, align 8, !tbaa !3
  %54 = getelementptr inbounds nuw %struct.Clu_Man_t_, ptr %53, i32 0, i32 24
  %55 = load ptr, ptr %54, align 8, !tbaa !83
  call void @Vec_IntFree(ptr noundef %55)
  br label %56

56:                                               ; preds = %52, %47
  %57 = load ptr, ptr %2, align 8, !tbaa !3
  %58 = getelementptr inbounds nuw %struct.Clu_Man_t_, ptr %57, i32 0, i32 18
  %59 = load ptr, ptr %58, align 8, !tbaa !8
  %60 = icmp ne ptr %59, null
  br i1 %60, label %61, label %65

61:                                               ; preds = %56
  %62 = load ptr, ptr %2, align 8, !tbaa !3
  %63 = getelementptr inbounds nuw %struct.Clu_Man_t_, ptr %62, i32 0, i32 18
  %64 = load ptr, ptr %63, align 8, !tbaa !8
  call void @Cnf_DataFree(ptr noundef %64)
  br label %65

65:                                               ; preds = %61, %56
  %66 = load ptr, ptr %2, align 8, !tbaa !3
  %67 = getelementptr inbounds nuw %struct.Clu_Man_t_, ptr %66, i32 0, i32 16
  %68 = load ptr, ptr %67, align 8, !tbaa !44
  %69 = icmp ne ptr %68, null
  br i1 %69, label %70, label %74

70:                                               ; preds = %65
  %71 = load ptr, ptr %2, align 8, !tbaa !3
  %72 = getelementptr inbounds nuw %struct.Clu_Man_t_, ptr %71, i32 0, i32 16
  %73 = load ptr, ptr %72, align 8, !tbaa !44
  call void @sat_solver_delete(ptr noundef %73)
  br label %74

74:                                               ; preds = %70, %65
  %75 = load ptr, ptr %2, align 8, !tbaa !3
  %76 = getelementptr inbounds nuw %struct.Clu_Man_t_, ptr %75, i32 0, i32 17
  %77 = load ptr, ptr %76, align 8, !tbaa !30
  %78 = icmp ne ptr %77, null
  br i1 %78, label %79, label %83

79:                                               ; preds = %74
  %80 = load ptr, ptr %2, align 8, !tbaa !3
  %81 = getelementptr inbounds nuw %struct.Clu_Man_t_, ptr %80, i32 0, i32 17
  %82 = load ptr, ptr %81, align 8, !tbaa !30
  call void @sat_solver_delete(ptr noundef %82)
  br label %83

83:                                               ; preds = %79, %74
  %84 = load ptr, ptr %2, align 8, !tbaa !3
  %85 = icmp ne ptr %84, null
  br i1 %85, label %86, label %88

86:                                               ; preds = %83
  %87 = load ptr, ptr %2, align 8, !tbaa !3
  call void @free(ptr noundef %87) #11
  store ptr null, ptr %2, align 8, !tbaa !3
  br label %89

88:                                               ; preds = %83
  br label %89

89:                                               ; preds = %88, %86
  ret void
}