; Function Attrs: nounwind uwtable
define void @Fra_ClausFree(ptr noundef captures(none) %0) local_unnamed_addr #0 {
  %2 = getelementptr inbounds nuw i8, ptr %0, i64 168
  %3 = load ptr, ptr %2, align 8, !tbaa !159
  %.not = icmp eq ptr %3, null
  br i1 %.not, label %8, label %4

4:                                                ; preds = %1
  %5 = getelementptr inbounds nuw i8, ptr %3, i64 8
  %6 = load ptr, ptr %5, align 8, !tbaa !31
  %.not.i = icmp eq ptr %6, null
  br i1 %.not.i, label %Vec_PtrFree.exit, label %7

7:                                                ; preds = %4
  tail call void @free(ptr noundef nonnull %6) #23
  br label %Vec_PtrFree.exit

Vec_PtrFree.exit:                                 ; preds = %4, %7
  tail call void @free(ptr noundef nonnull %3) #23
  br label %8

8:                                                ; preds = %Vec_PtrFree.exit, %1
  %9 = getelementptr inbounds nuw i8, ptr %0, i64 112
  %10 = load ptr, ptr %9, align 8, !tbaa !86
  %.not29 = icmp eq ptr %10, null
  br i1 %.not29, label %15, label %11

11:                                               ; preds = %8
  %12 = getelementptr inbounds nuw i8, ptr %10, i64 8
  %13 = load ptr, ptr %12, align 8, !tbaa !79
  %.not.i38 = icmp eq ptr %13, null
  br i1 %.not.i38, label %Vec_IntFree.exit, label %14

14:                                               ; preds = %11
  tail call void @free(ptr noundef nonnull %13) #23
  br label %Vec_IntFree.exit

Vec_IntFree.exit:                                 ; preds = %11, %14
  tail call void @free(ptr noundef nonnull %10) #23
  br label %15

15:                                               ; preds = %Vec_IntFree.exit, %8
  %16 = getelementptr inbounds nuw i8, ptr %0, i64 120
  %17 = load ptr, ptr %16, align 8, !tbaa !89
  %.not30 = icmp eq ptr %17, null
  br i1 %.not30, label %22, label %18

18:                                               ; preds = %15
  %19 = getelementptr inbounds nuw i8, ptr %17, i64 8
  %20 = load ptr, ptr %19, align 8, !tbaa !79
  %.not.i39 = icmp eq ptr %20, null
  br i1 %.not.i39, label %Vec_IntFree.exit40, label %21

21:                                               ; preds = %18
  tail call void @free(ptr noundef nonnull %20) #23
  br label %Vec_IntFree.exit40

Vec_IntFree.exit40:                               ; preds = %18, %21
  tail call void @free(ptr noundef nonnull %17) #23
  br label %22

22:                                               ; preds = %Vec_IntFree.exit40, %15
  %23 = getelementptr inbounds nuw i8, ptr %0, i64 152
  %24 = load ptr, ptr %23, align 8, !tbaa !135
  %.not31 = icmp eq ptr %24, null
  br i1 %.not31, label %29, label %25

25:                                               ; preds = %22
  %26 = getelementptr inbounds nuw i8, ptr %24, i64 8
  %27 = load ptr, ptr %26, align 8, !tbaa !79
  %.not.i41 = icmp eq ptr %27, null
  br i1 %.not.i41, label %Vec_IntFree.exit42, label %28

28:                                               ; preds = %25
  tail call void @free(ptr noundef nonnull %27) #23
  br label %Vec_IntFree.exit42

Vec_IntFree.exit42:                               ; preds = %25, %28
  tail call void @free(ptr noundef nonnull %24) #23
  br label %29

29:                                               ; preds = %Vec_IntFree.exit42, %22
  %30 = getelementptr inbounds nuw i8, ptr %0, i64 160
  %31 = load ptr, ptr %30, align 8, !tbaa !134
  %.not32 = icmp eq ptr %31, null
  br i1 %.not32, label %36, label %32

32:                                               ; preds = %29
  %33 = getelementptr inbounds nuw i8, ptr %31, i64 8
  %34 = load ptr, ptr %33, align 8, !tbaa !79
  %.not.i43 = icmp eq ptr %34, null
  br i1 %.not.i43, label %Vec_IntFree.exit44, label %35

35:                                               ; preds = %32
  tail call void @free(ptr noundef nonnull %34) #23
  br label %Vec_IntFree.exit44

Vec_IntFree.exit44:                               ; preds = %32, %35
  tail call void @free(ptr noundef nonnull %31) #23
  br label %36

36:                                               ; preds = %Vec_IntFree.exit44, %29
  %37 = getelementptr inbounds nuw i8, ptr %0, i64 128
  %38 = load ptr, ptr %37, align 8, !tbaa !76
  %.not33 = icmp eq ptr %38, null
  br i1 %.not33, label %43, label %39

39:                                               ; preds = %36
  %40 = getelementptr inbounds nuw i8, ptr %38, i64 8
  %41 = load ptr, ptr %40, align 8, !tbaa !79
  %.not.i45 = icmp eq ptr %41, null
  br i1 %.not.i45, label %Vec_IntFree.exit46, label %42

42:                                               ; preds = %39
  tail call void @free(ptr noundef nonnull %41) #23
  br label %Vec_IntFree.exit46

Vec_IntFree.exit46:                               ; preds = %39, %42
  tail call void @free(ptr noundef nonnull %38) #23
  br label %43

43:                                               ; preds = %Vec_IntFree.exit46, %36
  %44 = getelementptr inbounds nuw i8, ptr %0, i64 88
  %45 = load ptr, ptr %44, align 8, !tbaa !3
  %.not34 = icmp eq ptr %45, null
  br i1 %.not34, label %47, label %46

46:                                               ; preds = %43
  tail call void @Cnf_DataFree(ptr noundef nonnull %45) #23
  br label %47

47:                                               ; preds = %46, %43
  %48 = getelementptr inbounds nuw i8, ptr %0, i64 72
  %49 = load ptr, ptr %48, align 8, !tbaa !42
  %.not35 = icmp eq ptr %49, null
  br i1 %.not35, label %51, label %50

50:                                               ; preds = %47
  tail call void @sat_solver_delete(ptr noundef nonnull %49) #23
  br label %51

51:                                               ; preds = %50, %47
  %52 = getelementptr inbounds nuw i8, ptr %0, i64 80
  %53 = load ptr, ptr %52, align 8, !tbaa !39
  %.not36 = icmp eq ptr %53, null
  br i1 %.not36, label %55, label %54

54:                                               ; preds = %51
  tail call void @sat_solver_delete(ptr noundef nonnull %53) #23
  br label %55

55:                                               ; preds = %54, %51
  tail call void @free(ptr noundef nonnull %0) #23
  ret void
}